target datalayout = "e-m:e-p270:32:32-p271:32:32-p272:64:64-i64:64-i128:128-f80:128-n8:16:32:64-S128"
target triple = "x86_64-pc-linux-gnu"

%struct.nstime_t = type { i64, i32 }
%struct._packet_info = type { ptr, ptr, i32, i32, %struct.nstime_t, %struct.nstime_t, %struct.nstime_t, i8, ptr, ptr, ptr, ptr, %struct._address, %struct._address, %struct._address, %struct._address, %struct._address, %struct._address, i32, ptr, i8, [3 x i8], %struct.anon, i32, i32, i32, i32, ptr, i8, ptr, ptr, i16, i16, i32, i32, i16, i32, i32, ptr, ptr, ptr, i8, i8, i16, i16, i16, i32, i16, i16, ptr, ptr, ptr, ptr, ptr, i32, i32 }
%struct._address = type { i32, i32, ptr, ptr }
%struct.anon = type { i8, [3 x i8] }
%struct._cql_conversation_info_type = type { ptr }
%struct._frame_data = type <{ i32, i32, i32, i32, i32, [4 x i8], i64, ptr, ptr, ptr, i8, i16, [5 x i8], %struct.nstime_t, %struct.nstime_t, i32, i32 }>
%struct._cql_transaction_type = type { i32, i32, %struct.nstime_t }

; Function Attrs: null_pointer_is_valid sspstrong uwtable
define internal ptr @cql_transaction_add_request(ptr noundef %0, ptr noundef %1, i32 noundef %2, i32 noundef %3) #0 {
  %5 = alloca ptr, align 8
  %6 = alloca ptr, align 8
  %7 = alloca i32, align 4
  %8 = alloca i32, align 4
  %9 = alloca ptr, align 8
  %10 = alloca ptr, align 8
  store ptr %0, ptr %5, align 8
  store ptr %1, ptr %6, align 8
  store i32 %2, ptr %7, align 4
  store i32 %3, ptr %8, align 4
  call void @llvm.lifetime.start.p0(i64 8, ptr %9) #8
  call void @llvm.lifetime.start.p0(i64 8, ptr %10) #8
  %11 = load ptr, ptr %5, align 8
  %12 = getelementptr inbounds nuw %struct._cql_conversation_info_type, ptr %11, i32 0, i32 0
  %13 = load ptr, ptr %12, align 8
  %14 = load i32, ptr %7, align 4
  %15 = sext i32 %14 to i64
  %16 = inttoptr i64 %15 to ptr
  %17 = call ptr @wmem_map_lookup(ptr noundef %13, ptr noundef %16)
  store ptr %17, ptr %10, align 8
  %18 = load ptr, ptr %10, align 8
  %19 = icmp ne ptr %18, null
  br i1 %19, label %23, label %20

20:                                               ; preds = %4
  %21 = call ptr @wmem_file_scope()
  %22 = call noalias ptr @wmem_list_new(ptr noundef %21)
  store ptr %22, ptr %10, align 8
  br label %31

23:                                               ; preds = %4
  %24 = load ptr, ptr %5, align 8
  %25 = getelementptr inbounds nuw %struct._cql_conversation_info_type, ptr %24, i32 0, i32 0
  %26 = load ptr, ptr %25, align 8
  %27 = load i32, ptr %7, align 4
  %28 = sext i32 %27 to i64
  %29 = inttoptr i64 %28 to ptr
  %30 = call ptr @wmem_map_remove(ptr noundef %26, ptr noundef %29)
  br label %31

31:                                               ; preds = %23, %20
  %32 = call ptr @wmem_file_scope()
  %33 = call noalias ptr @wmem_alloc(ptr noundef %32, i64 noundef 24) #9
  store ptr %33, ptr %9, align 8
  %34 = load i32, ptr %8, align 4
  %35 = icmp ne i32 %34, 0
  br i1 %35, label %36, label %39

36:                                               ; preds = %31
  %37 = load ptr, ptr %9, align 8
  %38 = getelementptr inbounds nuw %struct._cql_transaction_type, ptr %37, i32 0, i32 0
  store i32 0, ptr %38, align 8
  br label %47

39:                                               ; preds = %31
  %40 = load ptr, ptr %6, align 8
  %41 = getelementptr inbounds nuw %struct._packet_info, ptr %40, i32 0, i32 8
  %42 = load ptr, ptr %41, align 8
  %43 = getelementptr inbounds nuw %struct._frame_data, ptr %42, i32 0, i32 0
  %44 = load i32, ptr %43, align 8
  %45 = load ptr, ptr %9, align 8
  %46 = getelementptr inbounds nuw %struct._cql_transaction_type, ptr %45, i32 0, i32 0
  store i32 %44, ptr %46, align 8
  br label %47

47:                                               ; preds = %39, %36
  %48 = load ptr, ptr %9, align 8
  %49 = getelementptr inbounds nuw %struct._cql_transaction_type, ptr %48, i32 0, i32 1
  store i32 0, ptr %49, align 4
  %50 = load ptr, ptr %9, align 8
  %51 = getelementptr inbounds nuw %struct._cql_transaction_type, ptr %50, i32 0, i32 2
  %52 = load ptr, ptr %6, align 8
  %53 = getelementptr inbounds nuw %struct._packet_info, ptr %52, i32 0, i32 4
  call void @llvm.memcpy.p0.p0.i64(ptr align 8 %51, ptr align 8 %53, i64 16, i1 false)
  %54 = load ptr, ptr %10, align 8
  %55 = load ptr, ptr %9, align 8
  call void @wmem_list_append(ptr noundef %54, ptr noundef %55)
  %56 = load ptr, ptr %5, align 8
  %57 = getelementptr inbounds nuw %struct._cql_conversation_info_type, ptr %56, i32 0, i32 0
  %58 = load ptr, ptr %57, align 8
  %59 = load i32, ptr %7, align 4
  %60 = sext i32 %59 to i64
  %61 = inttoptr i64 %60 to ptr
  %62 = load ptr, ptr %10, align 8
  %63 = call ptr @wmem_map_insert(ptr noundef %58, ptr noundef %61, ptr noundef %62)
  %64 = load ptr, ptr %9, align 8
  call void @llvm.lifetime.end.p0(i64 8, ptr %10) #8
  call void @llvm.lifetime.end.p0(i64 8, ptr %9) #8
  ret ptr %64
}