; Function Attrs: null_pointer_is_valid sspstrong uwtable
define internal fastcc noundef ptr @cql_transaction_add_request(ptr noundef readonly captures(none) %0, ptr noundef readonly captures(none) %1, i32 noundef %2, i32 noundef range(i32 0, 2) %3) unnamed_addr #0 {
  %5 = load ptr, ptr %0, align 8
  %6 = sext i32 %2 to i64
  %7 = inttoptr i64 %6 to ptr
  %8 = tail call ptr @wmem_map_lookup(ptr noundef %5, ptr noundef %7)
  %.not = icmp eq ptr %8, null
  br i1 %.not, label %9, label %12

9:                                                ; preds = %4
  %10 = tail call ptr @wmem_file_scope()
  %11 = tail call noalias ptr @wmem_list_new(ptr noundef %10)
  br label %15

12:                                               ; preds = %4
  %13 = load ptr, ptr %0, align 8
  %14 = tail call ptr @wmem_map_remove(ptr noundef %13, ptr noundef %7)
  br label %15

15:                                               ; preds = %12, %9
  %.0 = phi ptr [ %8, %12 ], [ %11, %9 ]
  %16 = tail call ptr @wmem_file_scope()
  %17 = tail call noalias dereferenceable_or_null(24) ptr @wmem_alloc(ptr noundef %16, i64 noundef 24) #9
  %.not18 = icmp eq i32 %3, 0
  br i1 %.not18, label %18, label %22

18:                                               ; preds = %15
  %19 = getelementptr inbounds nuw i8, ptr %1, i64 80
  %20 = load ptr, ptr %19, align 8
  %21 = load i32, ptr %20, align 8
  br label %22

22:                                               ; preds = %15, %18
  %storemerge = phi i32 [ %21, %18 ], [ 0, %15 ]
  store i32 %storemerge, ptr %17, align 8
  %23 = getelementptr inbounds nuw i8, ptr %17, i64 4
  store i32 0, ptr %23, align 4
  %24 = getelementptr inbounds nuw i8, ptr %17, i64 8
  %25 = getelementptr inbounds nuw i8, ptr %1, i64 24
  tail call void @llvm.memcpy.p0.p0.i64(ptr noundef nonnull align 8 dereferenceable(16) %24, ptr noundef nonnull align 8 dereferenceable(16) %25, i64 16, i1 false)
  tail call void @wmem_list_append(ptr noundef %.0, ptr noundef %17)
  %26 = load ptr, ptr %0, align 8
  %27 = tail call ptr @wmem_map_insert(ptr noundef %26, ptr noundef %7, ptr noundef %.0)
  ret ptr %17
}